; Function Attrs: mustprogress uwtable
define noundef i32 @_ZNK6icu_7717GregorianCalendar11monthLengthEiR10UErrorCode(ptr noundef nonnull align 8 dereferenceable(222) %0, i32 noundef %1, ptr noundef nonnull align 4 dereferenceable(4) %2) unnamed_addr #1 align 2 {
  %4 = getelementptr inbounds nuw i8, ptr %0, i64 84
  %5 = load i32, ptr %4, align 4, !tbaa !32
  %6 = load ptr, ptr %0, align 8, !tbaa !3
  %7 = getelementptr inbounds nuw i8, ptr %6, i64 320
  %8 = load ptr, ptr %7, align 8
  %9 = tail call noundef i32 %8(ptr noundef nonnull align 8 dereferenceable(222) %0, i32 noundef %5, i32 noundef %1, ptr noundef nonnull align 4 dereferenceable(4) %2)
  ret i32 %9
}